target datalayout = "e-m:e-p270:32:32-p271:32:32-p272:64:64-i64:64-i128:128-f80:128-n8:16:32:64-S128"
target triple = "x86_64-pc-linux-gnu"

%struct._generic_SUNLinearSolver_Ops = type { ptr, ptr, ptr, ptr, ptr, ptr, ptr, ptr, ptr, ptr, ptr, ptr, ptr, ptr, ptr }
%struct._generic_SUNLinearSolver = type { ptr, ptr, ptr }

; Function Attrs: nounwind uwtable
define ptr @SUNLinSolResid(ptr noundef %0) #0 {
  %2 = alloca ptr, align 8
  %3 = alloca ptr, align 8
  store ptr %0, ptr %2, align 8, !tbaa !8
  call void @llvm.lifetime.start.p0(i64 8, ptr %3) #4
  %4 = load ptr, ptr %2, align 8, !tbaa !8
  %5 = getelementptr inbounds nuw %struct._generic_SUNLinearSolver, ptr %4, i32 0, i32 1
  %6 = load ptr, ptr %5, align 8, !tbaa !28
  %7 = getelementptr inbounds nuw %struct._generic_SUNLinearSolver_Ops, ptr %6, i32 0, i32 13
  %8 = load ptr, ptr %7, align 8, !tbaa !24
  %9 = icmp ne ptr %8, null
  br i1 %9, label %10, label %18

10:                                               ; preds = %1
  %11 = load ptr, ptr %2, align 8, !tbaa !8
  %12 = getelementptr inbounds nuw %struct._generic_SUNLinearSolver, ptr %11, i32 0, i32 1
  %13 = load ptr, ptr %12, align 8, !tbaa !28
  %14 = getelementptr inbounds nuw %struct._generic_SUNLinearSolver_Ops, ptr %13, i32 0, i32 13
  %15 = load ptr, ptr %14, align 8, !tbaa !24
  %16 = load ptr, ptr %2, align 8, !tbaa !8
  %17 = call ptr %15(ptr noundef %16)
  store ptr %17, ptr %3, align 8, !tbaa !35
  br label %19

18:                                               ; preds = %1
  store ptr null, ptr %3, align 8, !tbaa !35
  br label %19

19:                                               ; preds = %18, %10
  %20 = load ptr, ptr %3, align 8, !tbaa !35
  call void @llvm.lifetime.end.p0(i64 8, ptr %3) #4
  ret ptr %20
}